; Function Attrs: mustprogress nounwind uwtable
define dso_local void @_ZN5clang27AmbiguousConversionSequence8destructEv(ptr noundef nonnull align 8 dereferenceable(96) %0) local_unnamed_addr #4 align 2 {
  %2 = getelementptr inbounds nuw i8, ptr %0, i64 16
  %3 = tail call noundef i64 @_ZNK4llvm15SmallVectorBaseIjE4sizeEv(ptr noundef nonnull align 8 dereferenceable(16) %2) #26
  %4 = load ptr, ptr %2, align 8
  %5 = getelementptr inbounds i8, ptr %0, i64 32
  %6 = icmp eq ptr %4, %5
  br i1 %6, label %_ZN4llvm11SmallVectorISt4pairIPN5clang9NamedDeclEPNS2_12FunctionDeclEELj4EED2Ev.exit, label %7

7:                                                ; preds = %1
  tail call void @free(ptr noundef %4) #26
  br label %_ZN4llvm11SmallVectorISt4pairIPN5clang9NamedDeclEPNS2_12FunctionDeclEELj4EED2Ev.exit

_ZN4llvm11SmallVectorISt4pairIPN5clang9NamedDeclEPNS2_12FunctionDeclEELj4EED2Ev.exit: ; preds = %1, %7
  ret void
}